; Function Attrs: mustprogress uwtable
define noundef nonnull ptr @_ZN8nanobind6detail8obj_iterEP7_object(ptr noundef %0) local_unnamed_addr #15 {
  %2 = tail call ptr @PyObject_GetIter(ptr noundef %0)
  %.not = icmp eq ptr %2, null
  br i1 %.not, label %3, label %4

3:                                                ; preds = %1
  tail call void @_ZN8nanobind6detail18raise_python_errorEv() #28
  unreachable

4:                                                ; preds = %1
  ret ptr %2
}